target datalayout = "e-m:e-p270:32:32-p271:32:32-p272:64:64-i64:64-i128:128-f80:128-n8:16:32:64-S128"
target triple = "x86_64-pc-linux-gnu"

%struct.AVProbeData = type { ptr, ptr, i32, ptr }

; Function Attrs: alwaysinline nounwind willreturn memory(none) uwtable
define internal zeroext i16 @av_bswap16(i16 noundef zeroext %0) #10 {
  %2 = alloca i16, align 2
  store i16 %0, ptr %2, align 2, !tbaa !146
  %3 = load i16, ptr %2, align 2, !tbaa !146
  %4 = zext i16 %3 to i32
  %5 = ashr i32 %4, 8
  %6 = load i16, ptr %2, align 2, !tbaa !146
  %7 = zext i16 %6 to i32
  %8 = shl i32 %7, 8
  %9 = or i32 %5, %8
  %10 = trunc i32 %9 to i16
  store i16 %10, ptr %2, align 2, !tbaa !146
  %11 = load i16, ptr %2, align 2, !tbaa !146
  ret i16 %11
}

; Function Attrs: nounwind uwtable
define internal i32 @sgi_probe(ptr noundef %0) #0 {
  %2 = alloca i32, align 4
  %3 = alloca ptr, align 8
  %4 = alloca ptr, align 8
  %5 = alloca i32, align 4
  store ptr %0, ptr %3, align 8, !tbaa !139
  call void @llvm.lifetime.start.p0(i64 8, ptr %4) #12
  %6 = load ptr, ptr %3, align 8, !tbaa !139
  %7 = getelementptr inbounds nuw %struct.AVProbeData, ptr %6, i32 0, i32 1
  %8 = load ptr, ptr %7, align 8, !tbaa !96
  store ptr %8, ptr %4, align 8, !tbaa !76
  %9 = load ptr, ptr %4, align 8, !tbaa !76
  %10 = load i16, ptr %9, align 1, !tbaa !77
  %11 = call zeroext i16 @av_bswap16(i16 noundef zeroext %10) #15
  %12 = zext i16 %11 to i32
  %13 = icmp eq i32 %12, 474
  br i1 %13, label %14, label %50

14:                                               ; preds = %1
  %15 = load ptr, ptr %4, align 8, !tbaa !76
  %16 = getelementptr inbounds i8, ptr %15, i64 2
  %17 = load i8, ptr %16, align 1, !tbaa !77
  %18 = zext i8 %17 to i32
  %19 = and i32 %18, -2
  %20 = icmp eq i32 %19, 0
  br i1 %20, label %21, label %50

21:                                               ; preds = %14
  %22 = load ptr, ptr %4, align 8, !tbaa !76
  %23 = getelementptr inbounds i8, ptr %22, i64 3
  %24 = load i8, ptr %23, align 1, !tbaa !77
  %25 = zext i8 %24 to i32
  %26 = and i32 %25, -4
  %27 = icmp eq i32 %26, 0
  br i1 %27, label %28, label %50

28:                                               ; preds = %21
  %29 = load ptr, ptr %4, align 8, !tbaa !76
  %30 = getelementptr inbounds i8, ptr %29, i64 3
  %31 = load i8, ptr %30, align 1, !tbaa !77
  %32 = zext i8 %31 to i32
  %33 = icmp ne i32 %32, 0
  br i1 %33, label %34, label %50

34:                                               ; preds = %28
  %35 = load ptr, ptr %4, align 8, !tbaa !76
  %36 = getelementptr inbounds i8, ptr %35, i64 4
  %37 = load i16, ptr %36, align 1, !tbaa !77
  %38 = call zeroext i16 @av_bswap16(i16 noundef zeroext %37) #15
  %39 = zext i16 %38 to i32
  %40 = and i32 %39, -8
  %41 = icmp eq i32 %40, 0
  br i1 %41, label %42, label %50

42:                                               ; preds = %34
  %43 = load ptr, ptr %4, align 8, !tbaa !76
  %44 = getelementptr inbounds i8, ptr %43, i64 4
  %45 = load i16, ptr %44, align 1, !tbaa !77
  %46 = call zeroext i16 @av_bswap16(i16 noundef zeroext %45) #15
  %47 = zext i16 %46 to i32
  %48 = icmp ne i32 %47, 0
  br i1 %48, label %49, label %50

49:                                               ; preds = %42
  store i32 51, ptr %2, align 4
  store i32 1, ptr %5, align 4
  br label %51

50:                                               ; preds = %42, %34, %28, %21, %14, %1
  store i32 0, ptr %2, align 4
  store i32 1, ptr %5, align 4
  br label %51

51:                                               ; preds = %50, %49
  call void @llvm.lifetime.end.p0(i64 8, ptr %4) #12
  %52 = load i32, ptr %2, align 4
  ret i32 %52
}