; Function Attrs: mustprogress nofree norecurse nosync nounwind willreturn memory(read, inaccessiblemem: none) uwtable
define internal range(i32 0, 52) i32 @sgi_probe(ptr noundef readonly captures(none) %0) #8 {
  %2 = getelementptr inbounds nuw i8, ptr %0, i64 8
  %3 = load ptr, ptr %2, align 8, !tbaa !90
  %4 = load i16, ptr %3, align 1, !tbaa !68
  %5 = icmp eq i16 %4, -9727
  br i1 %5, label %6, label %19

6:                                                ; preds = %1
  %7 = getelementptr inbounds nuw i8, ptr %3, i64 2
  %8 = load i8, ptr %7, align 1, !tbaa !68
  %9 = icmp ult i8 %8, 2
  br i1 %9, label %10, label %19

10:                                               ; preds = %6
  %11 = getelementptr inbounds nuw i8, ptr %3, i64 3
  %12 = load i8, ptr %11, align 1, !tbaa !68
  %13 = add i8 %12, -4
  %or.cond = icmp ult i8 %13, -3
  br i1 %or.cond, label %19, label %14

14:                                               ; preds = %10
  %15 = getelementptr inbounds nuw i8, ptr %3, i64 4
  %16 = load i16, ptr %15, align 1, !tbaa !68
  %17 = tail call i16 @llvm.bswap.i16(i16 %16)
  %18 = icmp ugt i16 %17, 7
  %.not7 = icmp eq i16 %16, 0
  %or.cond8 = or i1 %.not7, %18
  br i1 %or.cond8, label %19, label %20

19:                                               ; preds = %14, %10, %6, %1
  br label %20

20:                                               ; preds = %14, %19
  %.0 = phi i32 [ 0, %19 ], [ 51, %14 ]
  ret i32 %.0
}